target datalayout = "e-m:e-p270:32:32-p271:32:32-p272:64:64-i64:64-i128:128-f80:128-n8:16:32:64-S128"
target triple = "x86_64-pc-linux-gnu"

%struct.ccan_list_head = type { %struct.ccan_list_node }
%struct.ccan_list_node = type { ptr, ptr }
%union.pthread_mutex_t = type { %struct.__pthread_mutex_s }
%struct.__pthread_mutex_s = type { i32, i32, i32, i32, i32, i16, i16, %struct.__pthread_internal_list }
%struct.__pthread_internal_list = type { ptr, ptr }
%struct.ruby_cmdline_options = type { ptr, i64, i64, %struct.anon.6, %struct.anon.6, %struct.anon.6, i64, %struct.ruby_features_t, %struct.ruby_features_t, i32, i64, ptr, i16 }
%struct.anon.6 = type { %struct.anon.7 }
%struct.anon.7 = type { i64, i32 }
%struct.ruby_features_t = type { i32, i32 }
%struct.rb_hook_list_struct = type { ptr, i32, i32, i8, i8 }
%struct.rb_execution_context_struct = type { ptr, i64, ptr, ptr, i32, i32, ptr, ptr, ptr, i64, i64, i64, ptr, i64, ptr, i64, i64, i8, i8, i64, %struct.anon.10 }
%struct.anon.10 = type { ptr, ptr, i64, [1 x %struct.__jmp_buf_tag] }
%struct.__jmp_buf_tag = type { [8 x i64], i32, %struct.__sigset_t }
%struct.__sigset_t = type { [16 x i64] }
%struct.rb_control_frame_struct = type { ptr, ptr, ptr, i64, ptr, ptr, ptr }
%struct.rb_ractor_pub = type { i64, i32, %struct.rb_hook_list_struct }
%struct.rb_trace_arg_struct = type { i32, ptr, ptr, i64, i64, i64, i64, i64, i32, i32, i64 }
%struct.rb_thread_struct = type { %struct.ccan_list_node, i64, ptr, ptr, ptr, ptr, %struct.rb_thread_sched_item, i8, i32, i64, ptr, i64, i64, i8, i8, i32, ptr, i64, i64, i64, i64, %union.pthread_mutex_t, %struct.rb_unblock_callback, i64, ptr, %struct.ccan_list_head, ptr, %union.anon, i32, i64, ptr, i64, i32, i64, ptr, %struct.rb_ext_config }
%struct.rb_thread_sched_item = type { %struct.anon.11, %struct.rb_thread_sched_waiting, i8, i8, ptr, ptr }
%struct.anon.11 = type { %struct.ccan_list_node, %struct.ccan_list_node, %struct.ccan_list_node, %struct.ccan_list_node, %struct.ccan_list_node }
%struct.rb_thread_sched_waiting = type { i32, %struct.anon.12, %struct.ccan_list_node }
%struct.anon.12 = type { i64, i32, i32 }
%struct.rb_unblock_callback = type { ptr, ptr }
%union.anon = type { %struct.anon.13 }
%struct.anon.13 = type { i64, i64, i32 }
%struct.rb_ext_config = type { i8 }

@rb_e_script = hidden global i64 0, align 8
@rb_backtrace_length_limit = external global i64, align 8
@.str.220 = private unnamed_addr constant [4 x i8] c"sub\00", align 1
@.str.221 = private unnamed_addr constant [5 x i8] c"gsub\00", align 1
@.str.222 = private unnamed_addr constant [5 x i8] c"chop\00", align 1
@.str.223 = private unnamed_addr constant [6 x i8] c"chomp\00", align 1
@.str.224 = private unnamed_addr constant [4 x i8] c"$-p\00", align 1
@.str.225 = private unnamed_addr constant [4 x i8] c"$-l\00", align 1
@.str.226 = private unnamed_addr constant [4 x i8] c"$-a\00", align 1
@ruby_current_ec = external thread_local global ptr, align 8

; Function Attrs: inlinehint nounwind sspstrong uwtable
define internal ptr @rb_ec_thread_ptr(ptr noundef %0) #5 {
  %2 = alloca ptr, align 8
  store ptr %0, ptr %2, align 8, !tbaa !186
  %3 = load ptr, ptr %2, align 8, !tbaa !186
  %4 = getelementptr inbounds nuw %struct.rb_execution_context_struct, ptr %3, i32 0, i32 7
  %5 = load ptr, ptr %4, align 8, !tbaa !247
  ret ptr %5
}

; Function Attrs: inlinehint nounwind sspstrong uwtable
define internal ptr @rb_ec_ractor_ptr(ptr noundef %0) #5 {
  %2 = alloca ptr, align 8
  %3 = alloca ptr, align 8
  %4 = alloca ptr, align 8
  %5 = alloca i32, align 4
  store ptr %0, ptr %3, align 8, !tbaa !186
  call void @llvm.lifetime.start.p0(i64 8, ptr %4) #24
  %6 = load ptr, ptr %3, align 8, !tbaa !186
  %7 = call ptr @rb_ec_thread_ptr(ptr noundef %6)
  store ptr %7, ptr %4, align 8, !tbaa !233
  %8 = load ptr, ptr %4, align 8, !tbaa !233
  %9 = icmp ne ptr %8, null
  br i1 %9, label %10, label %14

10:                                               ; preds = %1
  %11 = load ptr, ptr %4, align 8, !tbaa !233
  %12 = getelementptr inbounds nuw %struct.rb_thread_struct, ptr %11, i32 0, i32 2
  %13 = load ptr, ptr %12, align 8, !tbaa !234
  store ptr %13, ptr %2, align 8
  store i32 1, ptr %5, align 4
  br label %15

14:                                               ; preds = %1
  store ptr null, ptr %2, align 8
  store i32 1, ptr %5, align 4
  br label %15

15:                                               ; preds = %14, %10
  call void @llvm.lifetime.end.p0(i64 8, ptr %4) #24
  %16 = load ptr, ptr %2, align 8
  ret ptr %16
}

; Function Attrs: inlinehint nounwind sspstrong uwtable
define internal void @rb_exec_event_hook_orig(ptr noundef %0, ptr noundef %1, i32 noundef %2, i64 noundef %3, i64 noundef %4, i64 noundef %5, i64 noundef %6, i64 noundef %7, i32 noundef %8) #5 {
  %10 = alloca ptr, align 8
  %11 = alloca ptr, align 8
  %12 = alloca i32, align 4
  %13 = alloca i64, align 8
  %14 = alloca i64, align 8
  %15 = alloca i64, align 8
  %16 = alloca i64, align 8
  %17 = alloca i64, align 8
  %18 = alloca i32, align 4
  %19 = alloca %struct.rb_trace_arg_struct, align 8
  store ptr %0, ptr %10, align 8, !tbaa !186
  store ptr %1, ptr %11, align 8, !tbaa !206
  store i32 %2, ptr %12, align 4, !tbaa !12
  store i64 %3, ptr %13, align 8, !tbaa !42
  store i64 %4, ptr %14, align 8, !tbaa !42
  store i64 %5, ptr %15, align 8, !tbaa !42
  store i64 %6, ptr %16, align 8, !tbaa !42
  store i64 %7, ptr %17, align 8, !tbaa !42
  store i32 %8, ptr %18, align 4, !tbaa !12
  call void @llvm.lifetime.start.p0(i64 80, ptr %19) #24
  %20 = load i32, ptr %12, align 4, !tbaa !12
  %21 = getelementptr inbounds nuw %struct.rb_trace_arg_struct, ptr %19, i32 0, i32 0
  store i32 %20, ptr %21, align 8, !tbaa !222
  %22 = load ptr, ptr %10, align 8, !tbaa !186
  %23 = getelementptr inbounds nuw %struct.rb_trace_arg_struct, ptr %19, i32 0, i32 1
  store ptr %22, ptr %23, align 8, !tbaa !224
  %24 = load ptr, ptr %10, align 8, !tbaa !186
  %25 = getelementptr inbounds nuw %struct.rb_execution_context_struct, ptr %24, i32 0, i32 2
  %26 = load ptr, ptr %25, align 8, !tbaa !211
  %27 = getelementptr inbounds nuw %struct.rb_trace_arg_struct, ptr %19, i32 0, i32 2
  store ptr %26, ptr %27, align 8, !tbaa !225
  %28 = load i64, ptr %13, align 8, !tbaa !42
  %29 = getelementptr inbounds nuw %struct.rb_trace_arg_struct, ptr %19, i32 0, i32 3
  store i64 %28, ptr %29, align 8, !tbaa !226
  %30 = load i64, ptr %14, align 8, !tbaa !42
  %31 = getelementptr inbounds nuw %struct.rb_trace_arg_struct, ptr %19, i32 0, i32 4
  store i64 %30, ptr %31, align 8, !tbaa !227
  %32 = load i64, ptr %15, align 8, !tbaa !42
  %33 = getelementptr inbounds nuw %struct.rb_trace_arg_struct, ptr %19, i32 0, i32 5
  store i64 %32, ptr %33, align 8, !tbaa !228
  %34 = load i64, ptr %16, align 8, !tbaa !42
  %35 = getelementptr inbounds nuw %struct.rb_trace_arg_struct, ptr %19, i32 0, i32 6
  store i64 %34, ptr %35, align 8, !tbaa !229
  %36 = load i64, ptr %17, align 8, !tbaa !42
  %37 = getelementptr inbounds nuw %struct.rb_trace_arg_struct, ptr %19, i32 0, i32 7
  store i64 %36, ptr %37, align 8, !tbaa !230
  %38 = getelementptr inbounds nuw %struct.rb_trace_arg_struct, ptr %19, i32 0, i32 10
  store i64 36, ptr %38, align 8, !tbaa !231
  %39 = getelementptr inbounds nuw %struct.rb_trace_arg_struct, ptr %19, i32 0, i32 8
  store i32 0, ptr %39, align 8, !tbaa !232
  %40 = load ptr, ptr %11, align 8, !tbaa !206
  %41 = load i32, ptr %18, align 4, !tbaa !12
  call void @rb_exec_event_hooks(ptr noundef %19, ptr noundef %40, i32 noundef %41)
  call void @llvm.lifetime.end.p0(i64 80, ptr %19) #24
  ret void
}

; Function Attrs: inlinehint nounwind sspstrong willreturn memory(none) uwtable
define internal zeroext i1 @RB_NIL_P(i64 noundef %0) #13 {
  %2 = alloca i64, align 8
  store i64 %0, ptr %2, align 8, !tbaa !42
  %3 = load i64, ptr %2, align 8, !tbaa !42
  %4 = icmp eq i64 %3, 4
  ret i1 %4
}

; Function Attrs: inlinehint nounwind sspstrong uwtable
define internal ptr @rb_ec_ractor_hooks(ptr noundef %0) #5 {
  %2 = alloca ptr, align 8
  %3 = alloca ptr, align 8
  store ptr %0, ptr %2, align 8, !tbaa !186
  call void @llvm.lifetime.start.p0(i64 8, ptr %3) #24
  %4 = load ptr, ptr %2, align 8, !tbaa !186
  %5 = call ptr @rb_ec_ractor_ptr(ptr noundef %4)
  store ptr %5, ptr %3, align 8, !tbaa !220
  %6 = load ptr, ptr %3, align 8, !tbaa !220
  %7 = getelementptr inbounds nuw %struct.rb_ractor_pub, ptr %6, i32 0, i32 2
  call void @llvm.lifetime.end.p0(i64 8, ptr %3) #24
  ret ptr %7
}

; Function Attrs: inlinehint nounwind sspstrong uwtable
define internal void @rb_exec_event_hook_script_compiled(ptr noundef %0, ptr noundef %1, i64 noundef %2) #5 {
  %4 = alloca ptr, align 8
  %5 = alloca ptr, align 8
  %6 = alloca i64, align 8
  %7 = alloca i32, align 4
  %8 = alloca ptr, align 8
  store ptr %0, ptr %4, align 8, !tbaa !186
  store ptr %1, ptr %5, align 8, !tbaa !136
  store i64 %2, ptr %6, align 8, !tbaa !42
  br label %9

9:                                                ; preds = %3
  call void @llvm.lifetime.start.p0(i64 4, ptr %7) #24
  store i32 8192, ptr %7, align 4, !tbaa !12
  call void @llvm.lifetime.start.p0(i64 8, ptr %8) #24
  %10 = load ptr, ptr %4, align 8, !tbaa !186
  %11 = call ptr @rb_ec_ractor_hooks(ptr noundef %10)
  store ptr %11, ptr %8, align 8, !tbaa !206
  %12 = load ptr, ptr %8, align 8, !tbaa !206
  %13 = getelementptr inbounds nuw %struct.rb_hook_list_struct, ptr %12, i32 0, i32 1
  %14 = load i32, ptr %13, align 8, !tbaa !208
  %15 = and i32 %14, 8192
  %16 = icmp ne i32 %15, 0
  %17 = xor i1 %16, true
  %18 = xor i1 %17, true
  %19 = zext i1 %18 to i32
  %20 = sext i32 %19 to i64
  %21 = call i64 @llvm.expect.i64(i64 %20, i64 0)
  %22 = icmp ne i64 %21, 0
  br i1 %22, label %23, label %43

23:                                               ; preds = %9
  %24 = load ptr, ptr %4, align 8, !tbaa !186
  %25 = load ptr, ptr %8, align 8, !tbaa !206
  %26 = load ptr, ptr %4, align 8, !tbaa !186
  %27 = getelementptr inbounds nuw %struct.rb_execution_context_struct, ptr %26, i32 0, i32 2
  %28 = load ptr, ptr %27, align 8, !tbaa !211
  %29 = getelementptr inbounds nuw %struct.rb_control_frame_struct, ptr %28, i32 0, i32 3
  %30 = load i64, ptr %29, align 8, !tbaa !218
  %31 = load i64, ptr %6, align 8, !tbaa !42
  %32 = call zeroext i1 @RB_NIL_P(i64 noundef %31) #27
  br i1 %32, label %33, label %36

33:                                               ; preds = %23
  %34 = load ptr, ptr %5, align 8, !tbaa !136
  %35 = ptrtoint ptr %34 to i64
  br label %41

36:                                               ; preds = %23
  %37 = load i64, ptr %6, align 8, !tbaa !42
  %38 = load ptr, ptr %5, align 8, !tbaa !136
  %39 = ptrtoint ptr %38 to i64
  %40 = call i64 (i64, ...) @rb_ary_new_from_args(i64 noundef 2, i64 noundef %37, i64 noundef %39)
  br label %41

41:                                               ; preds = %36, %33
  %42 = phi i64 [ %35, %33 ], [ %40, %36 ]
  call void @rb_exec_event_hook_orig(ptr noundef %24, ptr noundef %25, i32 noundef 8192, i64 noundef %30, i64 noundef 0, i64 noundef 0, i64 noundef 0, i64 noundef %42, i32 noundef 0)
  br label %43

43:                                               ; preds = %41, %9
  call void @llvm.lifetime.end.p0(i64 8, ptr %8) #24
  call void @llvm.lifetime.end.p0(i64 4, ptr %7) #24
  br label %44

44:                                               ; preds = %43
  ret void
}

; Function Attrs: inlinehint nounwind sspstrong uwtable
define internal ptr @rb_current_execution_context(i1 noundef zeroext %0) #5 {
  %2 = alloca i8, align 1
  %3 = alloca ptr, align 8
  %4 = zext i1 %0 to i8
  store i8 %4, ptr %2, align 1, !tbaa !81
  call void @llvm.lifetime.start.p0(i64 8, ptr %3) #24
  %5 = call align 8 ptr @llvm.threadlocal.address.p0(ptr align 8 @ruby_current_ec)
  %6 = load ptr, ptr %5, align 8, !tbaa !186
  store ptr %6, ptr %3, align 8, !tbaa !186
  %7 = load ptr, ptr %3, align 8, !tbaa !186
  call void @llvm.lifetime.end.p0(i64 8, ptr %3) #24
  ret ptr %7
}

; Function Attrs: nounwind sspstrong uwtable
define internal void @process_options_global_setup(ptr noundef %0, ptr noundef %1) #0 {
  %3 = alloca ptr, align 8
  %4 = alloca ptr, align 8
  %5 = alloca ptr, align 8
  %6 = alloca i64, align 8
  store ptr %0, ptr %3, align 8, !tbaa !51
  store ptr %1, ptr %4, align 8, !tbaa !136
  %7 = load ptr, ptr %3, align 8, !tbaa !51
  %8 = getelementptr inbounds nuw %struct.ruby_cmdline_options, ptr %7, i32 0, i32 10
  %9 = load i64, ptr %8, align 8, !tbaa !63
  %10 = icmp sge i64 %9, -1
  br i1 %10, label %11, label %15

11:                                               ; preds = %2
  %12 = load ptr, ptr %3, align 8, !tbaa !51
  %13 = getelementptr inbounds nuw %struct.ruby_cmdline_options, ptr %12, i32 0, i32 10
  %14 = load i64, ptr %13, align 8, !tbaa !63
  store i64 %14, ptr @rb_backtrace_length_limit, align 8, !tbaa !42
  br label %15

15:                                               ; preds = %11, %2
  %16 = load ptr, ptr %3, align 8, !tbaa !51
  %17 = getelementptr inbounds nuw %struct.ruby_cmdline_options, ptr %16, i32 0, i32 12
  %18 = load i16, ptr %17, align 8
  %19 = lshr i16 %18, 5
  %20 = and i16 %19, 1
  %21 = zext i16 %20 to i32
  %22 = icmp ne i32 %21, 0
  br i1 %22, label %23, label %24

23:                                               ; preds = %15
  call void @rb_define_global_function(ptr noundef @.str.220, ptr noundef @rb_f_sub, i32 noundef -1)
  call void @rb_define_global_function(ptr noundef @.str.221, ptr noundef @rb_f_gsub, i32 noundef -1)
  call void @rb_define_global_function(ptr noundef @.str.222, ptr noundef @rb_f_chop, i32 noundef 0)
  call void @rb_define_global_function(ptr noundef @.str.223, ptr noundef @rb_f_chomp, i32 noundef -1)
  br label %24

24:                                               ; preds = %23, %15
  %25 = load ptr, ptr %3, align 8, !tbaa !51
  %26 = getelementptr inbounds nuw %struct.ruby_cmdline_options, ptr %25, i32 0, i32 12
  %27 = load i16, ptr %26, align 8
  %28 = lshr i16 %27, 6
  %29 = and i16 %28, 1
  %30 = zext i16 %29 to i32
  %31 = icmp ne i32 %30, 0
  %32 = select i1 %31, ptr @true_value, ptr @false_value
  call void @rb_define_virtual_variable(ptr noundef @.str.224, ptr noundef %32, ptr noundef null)
  %33 = load ptr, ptr %3, align 8, !tbaa !51
  %34 = getelementptr inbounds nuw %struct.ruby_cmdline_options, ptr %33, i32 0, i32 12
  %35 = load i16, ptr %34, align 8
  %36 = lshr i16 %35, 7
  %37 = and i16 %36, 1
  %38 = zext i16 %37 to i32
  %39 = icmp ne i32 %38, 0
  %40 = select i1 %39, ptr @true_value, ptr @false_value
  call void @rb_define_virtual_variable(ptr noundef @.str.225, ptr noundef %40, ptr noundef null)
  %41 = load ptr, ptr %3, align 8, !tbaa !51
  %42 = getelementptr inbounds nuw %struct.ruby_cmdline_options, ptr %41, i32 0, i32 12
  %43 = load i16, ptr %42, align 8
  %44 = lshr i16 %43, 8
  %45 = and i16 %44, 1
  %46 = zext i16 %45 to i32
  %47 = icmp ne i32 %46, 0
  %48 = select i1 %47, ptr @true_value, ptr @false_value
  call void @rb_define_virtual_variable(ptr noundef @.str.226, ptr noundef %48, ptr noundef null)
  call void @rb_gvar_ractor_local(ptr noundef @.str.224)
  call void @rb_gvar_ractor_local(ptr noundef @.str.225)
  call void @rb_gvar_ractor_local(ptr noundef @.str.226)
  %49 = load ptr, ptr %3, align 8, !tbaa !51
  %50 = getelementptr inbounds nuw %struct.ruby_cmdline_options, ptr %49, i32 0, i32 2
  %51 = load i64, ptr %50, align 8, !tbaa !85
  store i64 %51, ptr @rb_e_script, align 8, !tbaa !42
  %52 = icmp ne i64 %51, 0
  br i1 %52, label %53, label %59

53:                                               ; preds = %24
  %54 = load i64, ptr @rb_e_script, align 8, !tbaa !42
  %55 = call i64 @rb_str_freeze(i64 noundef %54)
  %56 = load ptr, ptr %3, align 8, !tbaa !51
  %57 = getelementptr inbounds nuw %struct.ruby_cmdline_options, ptr %56, i32 0, i32 2
  %58 = load i64, ptr %57, align 8, !tbaa !85
  call void @rb_vm_register_global_object(i64 noundef %58)
  br label %59

59:                                               ; preds = %53, %24
  call void @llvm.lifetime.start.p0(i64 8, ptr %5) #24
  %60 = call ptr @rb_current_execution_context(i1 noundef zeroext true)
  store ptr %60, ptr %5, align 8, !tbaa !186
  call void @llvm.lifetime.start.p0(i64 8, ptr %6) #24
  %61 = load ptr, ptr %3, align 8, !tbaa !51
  %62 = getelementptr inbounds nuw %struct.ruby_cmdline_options, ptr %61, i32 0, i32 2
  %63 = load i64, ptr %62, align 8, !tbaa !85
  %64 = icmp ne i64 %63, 0
  br i1 %64, label %65, label %69

65:                                               ; preds = %59
  %66 = load ptr, ptr %3, align 8, !tbaa !51
  %67 = getelementptr inbounds nuw %struct.ruby_cmdline_options, ptr %66, i32 0, i32 2
  %68 = load i64, ptr %67, align 8, !tbaa !85
  br label %70

69:                                               ; preds = %59
  br label %70

70:                                               ; preds = %69, %65
  %71 = phi i64 [ %68, %65 ], [ 4, %69 ]
  store i64 %71, ptr %6, align 8, !tbaa !42
  %72 = load ptr, ptr %5, align 8, !tbaa !186
  %73 = load ptr, ptr %4, align 8, !tbaa !136
  %74 = load i64, ptr %6, align 8, !tbaa !42
  call void @rb_exec_event_hook_script_compiled(ptr noundef %72, ptr noundef %73, i64 noundef %74)
  call void @llvm.lifetime.end.p0(i64 8, ptr %6) #24
  call void @llvm.lifetime.end.p0(i64 8, ptr %5) #24
  ret void
}