; Function Attrs: nounwind sspstrong uwtable
define internal fastcc void @process_options_global_setup(ptr noundef nonnull readonly captures(none) %0, ptr noundef %1) unnamed_addr #0 {
  %3 = alloca %struct.rb_trace_arg_struct, align 8
  %4 = getelementptr inbounds nuw i8, ptr %0, i64 104
  %5 = load i64, ptr %4, align 8, !tbaa !60
  %6 = icmp sgt i64 %5, -2
  br i1 %6, label %7, label %8

7:                                                ; preds = %2
  store i64 %5, ptr @rb_backtrace_length_limit, align 8, !tbaa !47
  br label %8

8:                                                ; preds = %7, %2
  %9 = getelementptr inbounds nuw i8, ptr %0, i64 120
  %10 = load i16, ptr %9, align 8
  %11 = and i16 %10, 32
  %.not = icmp eq i16 %11, 0
  br i1 %.not, label %13, label %12

12:                                               ; preds = %8
  tail call void @rb_define_global_function(ptr noundef nonnull @.str.220, ptr noundef nonnull @rb_f_sub, i32 noundef -1) #25
  tail call void @rb_define_global_function(ptr noundef nonnull @.str.221, ptr noundef nonnull @rb_f_gsub, i32 noundef -1) #25
  tail call void @rb_define_global_function(ptr noundef nonnull @.str.222, ptr noundef nonnull @rb_f_chop, i32 noundef 0) #25
  tail call void @rb_define_global_function(ptr noundef nonnull @.str.223, ptr noundef nonnull @rb_f_chomp, i32 noundef -1) #25
  %.pre = load i16, ptr %9, align 8
  br label %13

13:                                               ; preds = %12, %8
  %14 = phi i16 [ %.pre, %12 ], [ %10, %8 ]
  %15 = and i16 %14, 64
  %.not14 = icmp eq i16 %15, 0
  %16 = select i1 %.not14, ptr @false_value, ptr @true_value
  tail call void @rb_define_virtual_variable(ptr noundef nonnull @.str.224, ptr noundef nonnull %16, ptr noundef null) #25
  %17 = load i16, ptr %9, align 8
  %18 = and i16 %17, 128
  %.not15 = icmp eq i16 %18, 0
  %19 = select i1 %.not15, ptr @false_value, ptr @true_value
  tail call void @rb_define_virtual_variable(ptr noundef nonnull @.str.225, ptr noundef nonnull %19, ptr noundef null) #25
  %20 = load i16, ptr %9, align 8
  %21 = and i16 %20, 256
  %.not16 = icmp eq i16 %21, 0
  %22 = select i1 %.not16, ptr @false_value, ptr @true_value
  tail call void @rb_define_virtual_variable(ptr noundef nonnull @.str.226, ptr noundef nonnull %22, ptr noundef null) #25
  tail call void @rb_gvar_ractor_local(ptr noundef nonnull @.str.224) #25
  tail call void @rb_gvar_ractor_local(ptr noundef nonnull @.str.225) #25
  tail call void @rb_gvar_ractor_local(ptr noundef nonnull @.str.226) #25
  %23 = getelementptr inbounds nuw i8, ptr %0, i64 16
  %24 = load i64, ptr %23, align 8, !tbaa !94
  store i64 %24, ptr @rb_e_script, align 8, !tbaa !47
  %.not17 = icmp eq i64 %24, 0
  br i1 %.not17, label %.thread, label %26

.thread:                                          ; preds = %13
  %25 = tail call align 8 ptr @llvm.threadlocal.address.p0(ptr align 8 @ruby_current_ec)
  br label %30

26:                                               ; preds = %13
  %27 = tail call i64 @rb_str_freeze(i64 noundef %24) #25
  %28 = load i64, ptr %23, align 8, !tbaa !94
  tail call void @rb_vm_register_global_object(i64 noundef %28) #25
  %.pre19 = load i64, ptr %23, align 8, !tbaa !94
  %.pre19.fr = freeze i64 %.pre19
  %29 = tail call align 8 ptr @llvm.threadlocal.address.p0(ptr align 8 @ruby_current_ec)
  %.not18 = icmp eq i64 %.pre19.fr, 0
  %spec.select = select i1 %.not18, i64 4, i64 %.pre19.fr
  br label %30

30:                                               ; preds = %26, %.thread
  %.in = phi ptr [ %25, %.thread ], [ %29, %26 ]
  %31 = phi i64 [ 4, %.thread ], [ %spec.select, %26 ]
  %32 = load ptr, ptr %.in, align 8, !tbaa !211
  %33 = getelementptr i8, ptr %32, i64 48
  %.val.i = load ptr, ptr %33, align 8, !tbaa !213, !nonnull !220, !noundef !220
  %34 = getelementptr inbounds nuw i8, ptr %.val.i, i64 24
  %35 = load ptr, ptr %34, align 8, !tbaa !221
  %36 = getelementptr inbounds nuw i8, ptr %35, i64 16
  %37 = getelementptr inbounds nuw i8, ptr %35, i64 24
  %38 = load i32, ptr %37, align 8, !tbaa !234
  %39 = and i32 %38, 8192
  %.not.i = icmp eq i32 %39, 0
  br i1 %.not.i, label %rb_exec_event_hook_script_compiled.exit, label %40, !prof !237

40:                                               ; preds = %30
  %41 = getelementptr inbounds nuw i8, ptr %32, i64 16
  %42 = load ptr, ptr %41, align 8, !tbaa !238
  %43 = getelementptr inbounds nuw i8, ptr %42, i64 24
  %44 = load i64, ptr %43, align 8, !tbaa !239
  %45 = icmp eq i64 %31, 4
  %46 = ptrtoint ptr %1 to i64
  br i1 %45, label %49, label %47

47:                                               ; preds = %40
  %48 = tail call i64 (i64, ...) @rb_ary_new_from_args(i64 noundef 2, i64 noundef range(i64 1, 0) %31, i64 noundef %46) #25
  %.pre.i = load ptr, ptr %41, align 8, !tbaa !238
  br label %49

49:                                               ; preds = %47, %40
  %50 = phi ptr [ %.pre.i, %47 ], [ %42, %40 ]
  %51 = phi i64 [ %48, %47 ], [ %46, %40 ]
  call void @llvm.lifetime.start.p0(i64 80, ptr nonnull %3) #25
  store i32 8192, ptr %3, align 8, !tbaa !242
  %52 = getelementptr inbounds nuw i8, ptr %3, i64 8
  store ptr %32, ptr %52, align 8, !tbaa !244
  %53 = getelementptr inbounds nuw i8, ptr %3, i64 16
  store ptr %50, ptr %53, align 8, !tbaa !245
  %54 = getelementptr inbounds nuw i8, ptr %3, i64 24
  store i64 %44, ptr %54, align 8, !tbaa !246
  %55 = getelementptr inbounds nuw i8, ptr %3, i64 32
  %56 = getelementptr inbounds nuw i8, ptr %3, i64 56
  call void @llvm.memset.p0.i64(ptr noundef nonnull align 8 dereferenceable(24) %55, i8 0, i64 24, i1 false)
  store i64 %51, ptr %56, align 8, !tbaa !247
  %57 = getelementptr inbounds nuw i8, ptr %3, i64 72
  store i64 36, ptr %57, align 8, !tbaa !248
  %58 = getelementptr inbounds nuw i8, ptr %3, i64 64
  store i32 0, ptr %58, align 8, !tbaa !249
  call void @rb_exec_event_hooks(ptr noundef nonnull %3, ptr noundef nonnull %36, i32 noundef 0) #25
  call void @llvm.lifetime.end.p0(i64 80, ptr nonnull %3) #25
  br label %rb_exec_event_hook_script_compiled.exit

rb_exec_event_hook_script_compiled.exit:          ; preds = %30, %49
  ret void
}